; Function Attrs: mustprogress uwtable
define noundef signext i8 @_ZNK6icu_7518AnnualTimeZoneRule13getFinalStartEiiRd(ptr nocapture noundef nonnull readonly align 8 dereferenceable(96) %this, i32 noundef %prevRawOffset, i32 noundef %prevDSTSavings, ptr nocapture noundef nonnull align 8 dereferenceable(8) %result) unnamed_addr #0 align 2 {
entry:
  %fEndYear = getelementptr inbounds i8, ptr %this, i64 92
  %0 = load i32, ptr %fEndYear, align 4
  %cmp = icmp eq i32 %0, 2147483647
  br i1 %cmp, label %return, label %if.end

if.end:                                           ; preds = %entry
  %call = tail call noundef signext i8 @_ZNK6icu_7518AnnualTimeZoneRule14getStartInYearEiiiRd(ptr noundef nonnull align 8 dereferenceable(96) %this, i32 noundef %0, i32 noundef %prevRawOffset, i32 noundef %prevDSTSavings, ptr noundef nonnull align 8 dereferenceable(8) %result), !range !4
  br label %return

return:                                           ; preds = %entry, %if.end
  %retval.0 = phi i8 [ %call, %if.end ], [ 0, %entry ]
  ret i8 %retval.0
}